target datalayout = "e-m:e-p270:32:32-p271:32:32-p272:64:64-i64:64-i128:128-f80:128-n8:16:32:64-S128"
target triple = "x86_64-pc-linux-gnu"

%"struct.llvm::RegisterBankInfo::PartialMapping" = type { i32, i32, ptr }
%"struct.llvm::RegisterBankInfo::ValueMapping" = type <{ ptr, i32, [4 x i8] }>

; Function Attrs: mustprogress nounwind uwtable
define linkonce_odr hidden noundef ptr @_ZNK4llvm16RegisterBankInfo12ValueMapping3endEv(ptr noundef nonnull align 8 dereferenceable(12) %0) #1 comdat align 2 {
  %2 = alloca ptr, align 8
  store ptr %0, ptr %2, align 8
  %3 = load ptr, ptr %2, align 8
  %4 = getelementptr inbounds nuw %"struct.llvm::RegisterBankInfo::ValueMapping", ptr %3, i32 0, i32 0
  %5 = load ptr, ptr %4, align 8
  %6 = getelementptr inbounds nuw %"struct.llvm::RegisterBankInfo::ValueMapping", ptr %3, i32 0, i32 1
  %7 = load i32, ptr %6, align 8
  %8 = zext i32 %7 to i64
  %9 = getelementptr inbounds %"struct.llvm::RegisterBankInfo::PartialMapping", ptr %5, i64 %8
  ret ptr %9
}

; Function Attrs: mustprogress nounwind uwtable
define linkonce_odr hidden noundef ptr @_ZNK4llvm16RegisterBankInfo12ValueMapping5beginEv(ptr noundef nonnull align 8 dereferenceable(12) %0) #1 comdat align 2 {
  %2 = alloca ptr, align 8
  store ptr %0, ptr %2, align 8
  %3 = load ptr, ptr %2, align 8
  %4 = getelementptr inbounds nuw %"struct.llvm::RegisterBankInfo::ValueMapping", ptr %3, i32 0, i32 0
  %5 = load ptr, ptr %4, align 8
  ret ptr %5
}

; Function Attrs: mustprogress nounwind uwtable
define dso_local noundef zeroext i1 @_ZNK4llvm16RegisterBankInfo12ValueMapping15partsAllUniformEv(ptr noundef nonnull align 8 dereferenceable(12) %0) #1 align 2 {
  %2 = alloca i1, align 1
  %3 = alloca ptr, align 8
  %4 = alloca ptr, align 8
  %5 = alloca ptr, align 8
  store ptr %0, ptr %3, align 8
  %6 = load ptr, ptr %3, align 8
  %7 = getelementptr inbounds nuw %"struct.llvm::RegisterBankInfo::ValueMapping", ptr %6, i32 0, i32 1
  %8 = load i32, ptr %7, align 8
  %9 = icmp ult i32 %8, 2
  br i1 %9, label %10, label %11

10:                                               ; preds = %1
  store i1 true, ptr %2, align 1
  br label %41

11:                                               ; preds = %1
  %12 = call noundef ptr @_ZNK4llvm16RegisterBankInfo12ValueMapping5beginEv(ptr noundef nonnull align 8 dereferenceable(12) %6)
  store ptr %12, ptr %4, align 8
  %13 = load ptr, ptr %4, align 8
  %14 = getelementptr inbounds %"struct.llvm::RegisterBankInfo::PartialMapping", ptr %13, i64 1
  store ptr %14, ptr %5, align 8
  br label %15

15:                                               ; preds = %37, %11
  %16 = load ptr, ptr %5, align 8
  %17 = call noundef ptr @_ZNK4llvm16RegisterBankInfo12ValueMapping3endEv(ptr noundef nonnull align 8 dereferenceable(12) %6)
  %18 = icmp ne ptr %16, %17
  br i1 %18, label %19, label %40

19:                                               ; preds = %15
  %20 = load ptr, ptr %5, align 8
  %21 = getelementptr inbounds nuw %"struct.llvm::RegisterBankInfo::PartialMapping", ptr %20, i32 0, i32 1
  %22 = load i32, ptr %21, align 4
  %23 = load ptr, ptr %4, align 8
  %24 = getelementptr inbounds nuw %"struct.llvm::RegisterBankInfo::PartialMapping", ptr %23, i32 0, i32 1
  %25 = load i32, ptr %24, align 4
  %26 = icmp ne i32 %22, %25
  br i1 %26, label %35, label %27

27:                                               ; preds = %19
  %28 = load ptr, ptr %5, align 8
  %29 = getelementptr inbounds nuw %"struct.llvm::RegisterBankInfo::PartialMapping", ptr %28, i32 0, i32 2
  %30 = load ptr, ptr %29, align 8
  %31 = load ptr, ptr %4, align 8
  %32 = getelementptr inbounds nuw %"struct.llvm::RegisterBankInfo::PartialMapping", ptr %31, i32 0, i32 2
  %33 = load ptr, ptr %32, align 8
  %34 = icmp ne ptr %30, %33
  br i1 %34, label %35, label %36

35:                                               ; preds = %27, %19
  store i1 false, ptr %2, align 1
  br label %41

36:                                               ; preds = %27
  br label %37

37:                                               ; preds = %36
  %38 = load ptr, ptr %5, align 8
  %39 = getelementptr inbounds %"struct.llvm::RegisterBankInfo::PartialMapping", ptr %38, i32 1
  store ptr %39, ptr %5, align 8
  br label %15, !llvm.loop !10

40:                                               ; preds = %15
  store i1 true, ptr %2, align 1
  br label %41

41:                                               ; preds = %40, %35, %10
  %42 = load i1, ptr %2, align 1
  ret i1 %42
}