; Function Attrs: mustprogress nofree norecurse nosync nounwind willreturn memory(read, inaccessiblemem: none) uwtable
define dso_local noundef zeroext i1 @_ZNK4llvm16RegisterBankInfo12ValueMapping15partsAllUniformEv(ptr nocapture noundef nonnull readonly align 8 dereferenceable(12) %0) local_unnamed_addr #5 align 2 {
  %2 = getelementptr inbounds nuw i8, ptr %0, i64 8
  %3 = load i32, ptr %2, align 8
  %4 = icmp ult i32 %3, 2
  br i1 %4, label %.loopexit, label %5

5:                                                ; preds = %1
  %6 = load ptr, ptr %0, align 8
  %7 = zext i32 %3 to i64
  %8 = getelementptr inbounds %"struct.llvm::RegisterBankInfo::PartialMapping", ptr %6, i64 %7
  %9 = getelementptr inbounds nuw i8, ptr %6, i64 4
  %10 = getelementptr inbounds nuw i8, ptr %6, i64 8
  br label %11

11:                                               ; preds = %16, %5
  %.pn = phi ptr [ %6, %5 ], [ %.0, %16 ]
  %.0 = getelementptr inbounds i8, ptr %.pn, i64 16
  %.not = icmp eq ptr %.0, %8
  br i1 %.not, label %.loopexit, label %12

12:                                               ; preds = %11
  %13 = getelementptr inbounds i8, ptr %.pn, i64 20
  %14 = load i32, ptr %13, align 4
  %15 = load i32, ptr %9, align 4
  %.not10 = icmp eq i32 %14, %15
  br i1 %.not10, label %16, label %.loopexit

16:                                               ; preds = %12
  %17 = getelementptr inbounds i8, ptr %.pn, i64 24
  %18 = load ptr, ptr %17, align 8
  %19 = load ptr, ptr %10, align 8
  %.not11 = icmp eq ptr %18, %19
  br i1 %.not11, label %11, label %.loopexit, !llvm.loop !31

.loopexit:                                        ; preds = %11, %12, %16, %1
  %.09 = phi i1 [ true, %1 ], [ %.not, %16 ], [ %.not, %12 ], [ %.not, %11 ]
  ret i1 %.09
}